; Function Attrs: mustprogress nofree norecurse nosync nounwind willreturn memory(argmem: readwrite) uwtable
define void @_Z17b2LinearStiffnessRfS_ffPK6b2BodyS2_(ptr nocapture noundef nonnull writeonly align 4 dereferenceable(4) %stiffness, ptr nocapture noundef nonnull writeonly align 4 dereferenceable(4) %damping, float noundef %frequencyHertz, float noundef %dampingRatio, ptr nocapture noundef readonly %bodyA, ptr nocapture noundef readonly %bodyB) local_unnamed_addr #0 {
entry:
  %m_mass.i = getelementptr inbounds i8, ptr %bodyA, i64 144
  %0 = load float, ptr %m_mass.i, align 8
  %m_mass.i11 = getelementptr inbounds i8, ptr %bodyB, i64 144
  %1 = load float, ptr %m_mass.i11, align 8
  %cmp = fcmp ogt float %0, 0.000000e+00
  %cmp2 = fcmp ogt float %1, 0.000000e+00
  %or.cond = and i1 %cmp, %cmp2
  br i1 %or.cond, label %if.then, label %if.else

if.then:                                          ; preds = %entry
  %mul = fmul float %0, %1
  %add = fadd float %0, %1
  %div = fdiv float %mul, %add
  br label %if.end6

if.else:                                          ; preds = %entry
  %call.call1 = select i1 %cmp, float %0, float %1
  br label %if.end6

if.end6:                                          ; preds = %if.else, %if.then
  %mass.0 = phi float [ %div, %if.then ], [ %call.call1, %if.else ]
  %mul7 = fmul float %frequencyHertz, 0x401921FB60000000
  %mul8 = fmul float %mul7, %mass.0
  %mul9 = fmul float %mul7, %mul8
  store float %mul9, ptr %stiffness, align 4
  %mul10 = fmul float %mass.0, 2.000000e+00
  %mul11 = fmul float %mul10, %dampingRatio
  %mul12 = fmul float %mul7, %mul11
  store float %mul12, ptr %damping, align 4
  ret void
}